target datalayout = "e-m:e-p270:32:32-p271:32:32-p272:64:64-i64:64-i128:128-f80:128-n8:16:32:64-S128"
target triple = "x86_64-pc-linux-gnu"

%struct.StringSlice_ = type { ptr, i64 }

; Function Attrs: nounwind uwtable
define dso_local void @parent_path(ptr noundef %0) #0 {
  %2 = alloca ptr, align 8
  %3 = alloca i32, align 4
  store ptr %0, ptr %2, align 8
  %4 = load ptr, ptr %2, align 8
  %5 = getelementptr inbounds %struct.StringSlice_, ptr %4, i32 0, i32 1
  %6 = load i64, ptr %5, align 8
  %7 = trunc i64 %6 to i32
  %8 = sub nsw i32 %7, 1
  store i32 %8, ptr %3, align 4
  br label %9

9:                                                ; preds = %29, %1
  %10 = load i32, ptr %3, align 4
  %11 = icmp sge i32 %10, 0
  br i1 %11, label %12, label %32

12:                                               ; preds = %9
  %13 = load ptr, ptr %2, align 8
  %14 = getelementptr inbounds %struct.StringSlice_, ptr %13, i32 0, i32 0
  %15 = load ptr, ptr %14, align 8
  %16 = load i32, ptr %3, align 4
  %17 = sext i32 %16 to i64
  %18 = getelementptr inbounds i8, ptr %15, i64 %17
  %19 = load i8, ptr %18, align 1
  %20 = sext i8 %19 to i32
  %21 = icmp eq i32 %20, 58
  br i1 %21, label %22, label %28

22:                                               ; preds = %12
  %23 = load i32, ptr %3, align 4
  %24 = sub nsw i32 %23, 1
  %25 = sext i32 %24 to i64
  %26 = load ptr, ptr %2, align 8
  %27 = getelementptr inbounds %struct.StringSlice_, ptr %26, i32 0, i32 1
  store i64 %25, ptr %27, align 8
  br label %35

28:                                               ; preds = %12
  br label %29

29:                                               ; preds = %28
  %30 = load i32, ptr %3, align 4
  %31 = add nsw i32 %30, -1
  store i32 %31, ptr %3, align 4
  br label %9, !llvm.loop !7

32:                                               ; preds = %9
  %33 = load ptr, ptr %2, align 8
  %34 = getelementptr inbounds %struct.StringSlice_, ptr %33, i32 0, i32 1
  store i64 0, ptr %34, align 8
  br label %35

35:                                               ; preds = %32, %22
  ret void
}