; Function Attrs: nofree norecurse nosync nounwind memory(read, argmem: readwrite, inaccessiblemem: none) uwtable
define dso_local void @parent_path(ptr nocapture noundef %0) local_unnamed_addr #0 {
  %2 = getelementptr inbounds i8, ptr %0, i64 8
  %3 = load i64, ptr %2, align 8
  %4 = and i64 %3, 4294967295
  br label %5

5:                                                ; preds = %8, %1
  %indvars.iv = phi i64 [ %9, %8 ], [ %4, %1 ]
  %6 = trunc nuw i64 %indvars.iv to i32
  %7 = icmp sgt i32 %6, 0
  br i1 %7, label %8, label %.loopexit

8:                                                ; preds = %5
  %9 = add nsw i64 %indvars.iv, -1
  %10 = load ptr, ptr %0, align 8
  %11 = getelementptr inbounds i8, ptr %10, i64 %9
  %12 = load i8, ptr %11, align 1
  %13 = icmp eq i8 %12, 58
  br i1 %13, label %14, label %5, !llvm.loop !7

14:                                               ; preds = %8
  %15 = shl i64 %indvars.iv, 32
  %sext = add nsw i64 %15, -8589934592
  %16 = ashr exact i64 %sext, 32
  br label %.loopexit

.loopexit:                                        ; preds = %5, %14
  %storemerge = phi i64 [ %16, %14 ], [ 0, %5 ]
  store i64 %storemerge, ptr %2, align 8
  ret void
}